; Function Attrs: mustprogress uwtable
define void @_ZNK32pxrInternal_v0_24__pxrReserved__5GfRay16FindClosestPointERKNS_7GfVec3dEPd(ptr dead_on_unwind noalias nocapture writable writeonly sret(%"class.pxrInternal_v0_24__pxrReserved__::GfVec3d") align 8 %0, ptr nocapture noundef nonnull readonly align 8 dereferenceable(48) %1, ptr noundef nonnull align 8 dereferenceable(24) %2, ptr noundef writeonly %3) local_unnamed_addr #0 align 2 {
  %5 = alloca %"class.pxrInternal_v0_24__pxrReserved__::GfLine", align 8
  %6 = alloca double, align 8
  %7 = alloca %"class.pxrInternal_v0_24__pxrReserved__::GfVec3d", align 8
  %8 = getelementptr inbounds nuw i8, ptr %1, i64 24
  call void @llvm.memcpy.p0.p0.i64(ptr noundef nonnull align 8 dereferenceable(24) %5, ptr noundef nonnull align 8 dereferenceable(24) %1, i64 24, i1 false)
  %9 = getelementptr inbounds nuw i8, ptr %5, i64 24
  call void @llvm.memcpy.p0.p0.i64(ptr noundef nonnull align 8 dereferenceable(24) %9, ptr noundef nonnull align 8 dereferenceable(24) %8, i64 24, i1 false)
  %10 = load double, ptr %9, align 8
  %11 = getelementptr inbounds i8, ptr %5, i64 32
  %12 = load double, ptr %11, align 8
  %13 = fmul double %12, %12
  %14 = tail call double @llvm.fmuladd.f64(double %10, double %10, double %13)
  %15 = getelementptr inbounds i8, ptr %5, i64 40
  %16 = load double, ptr %15, align 8
  %17 = tail call noundef double @llvm.fmuladd.f64(double %16, double %16, double %14)
  %sqrt.i.i.i = tail call noundef double @llvm.sqrt.f64(double %17)
  %18 = fcmp ogt double %sqrt.i.i.i, 1.000000e-10
  %19 = select i1 %18, double %sqrt.i.i.i, double 1.000000e-10
  %20 = fdiv double 1.000000e+00, %19
  %21 = fmul double %10, %20
  store double %21, ptr %9, align 8
  %22 = fmul double %12, %20
  store double %22, ptr %11, align 8
  %23 = fmul double %16, %20
  store double %23, ptr %15, align 8
  call void @_ZNK32pxrInternal_v0_24__pxrReserved__6GfLine16FindClosestPointERKNS_7GfVec3dEPd(ptr dead_on_unwind nonnull writable sret(%"class.pxrInternal_v0_24__pxrReserved__::GfVec3d") align 8 %7, ptr noundef nonnull align 8 dereferenceable(48) %5, ptr noundef nonnull align 8 dereferenceable(24) %2, ptr noundef nonnull %6)
  %24 = load double, ptr %6, align 8
  %25 = fcmp olt double %24, 0.000000e+00
  %26 = select i1 %25, double 0.000000e+00, double %24
  %.not = icmp eq ptr %3, null
  br i1 %.not, label %29, label %27

27:                                               ; preds = %4
  %28 = fdiv double %26, %sqrt.i.i.i
  store double %28, ptr %3, align 8
  br label %29

29:                                               ; preds = %27, %4
  call void @llvm.experimental.noalias.scope.decl(metadata !13)
  %.sroa.0.0.copyload.i.i = load double, ptr %9, align 8, !noalias !16
  %.sroa.4.0.copyload.i.i = load double, ptr %11, align 8, !noalias !16
  %.sroa.6.0.copyload.i.i = load double, ptr %15, align 8, !noalias !16
  %30 = fmul double %26, %.sroa.0.0.copyload.i.i
  %31 = fmul double %26, %.sroa.4.0.copyload.i.i
  %32 = fmul double %26, %.sroa.6.0.copyload.i.i
  call void @llvm.experimental.noalias.scope.decl(metadata !19)
  %.sroa.0.0.copyload.i2.i = load double, ptr %5, align 8, !noalias !22
  %.sroa.4.0..sroa_idx.i3.i = getelementptr inbounds i8, ptr %5, i64 8
  %.sroa.4.0.copyload.i4.i = load double, ptr %.sroa.4.0..sroa_idx.i3.i, align 8, !noalias !22
  %.sroa.6.0..sroa_idx.i5.i = getelementptr inbounds i8, ptr %5, i64 16
  %.sroa.6.0.copyload.i6.i = load double, ptr %.sroa.6.0..sroa_idx.i5.i, align 8, !noalias !22
  %33 = fadd double %30, %.sroa.0.0.copyload.i2.i
  %34 = fadd double %31, %.sroa.4.0.copyload.i4.i
  %35 = fadd double %32, %.sroa.6.0.copyload.i6.i
  store double %33, ptr %0, align 8, !alias.scope !22
  %.sroa.4.0..sroa_idx3.i7.i = getelementptr inbounds i8, ptr %0, i64 8
  store double %34, ptr %.sroa.4.0..sroa_idx3.i7.i, align 8, !alias.scope !22
  %.sroa.6.0..sroa_idx5.i8.i = getelementptr inbounds i8, ptr %0, i64 16
  store double %35, ptr %.sroa.6.0..sroa_idx5.i8.i, align 8, !alias.scope !22
  ret void
}